; Function Attrs: mustprogress nounwind uwtable
define internal fastcc noundef zeroext i1 @_ZL22mayHaveOtherReferencesRN4llvm11GlobalValueERKN12_GLOBAL__N_18LLVMUsedE(ptr noundef nonnull align 8 dereferenceable(48) %0, ptr noundef nonnull align 8 dereferenceable(144) %1) unnamed_addr #0 {
  %3 = getelementptr inbounds nuw i8, ptr %0, i64 32
  %4 = load i32, ptr %3, align 8
  %5 = and i32 %4, 15
  %6 = add nsw i32 %5, -7
  %spec.select.i.i = icmp ult i32 %6, 2
  br i1 %spec.select.i.i, label %7, label %71

7:                                                ; preds = %2
  %8 = getelementptr inbounds nuw i8, ptr %1, i64 8
  %9 = load ptr, ptr %8, align 8
  %10 = load ptr, ptr %1, align 8
  %11 = icmp eq ptr %9, %10
  br i1 %11, label %12, label %22

12:                                               ; preds = %7
  %13 = getelementptr inbounds nuw i8, ptr %1, i64 20
  %14 = load i32, ptr %13, align 4
  %15 = zext i32 %14 to i64
  %16 = getelementptr inbounds ptr, ptr %10, i64 %15
  %.not1317.i.i.i = icmp eq i32 %14, 0
  br i1 %.not1317.i.i.i, label %._crit_edge.i.i.i, label %.lr.ph.i.i.i

.lr.ph.i.i.i:                                     ; preds = %12, %19
  %.01118.i.i.i = phi ptr [ %20, %19 ], [ %10, %12 ]
  %17 = load ptr, ptr %.01118.i.i.i, align 8
  %18 = icmp eq ptr %17, %0
  br i1 %18, label %_ZNK12_GLOBAL__N_18LLVMUsed9usedCountEPN4llvm11GlobalValueE.exit, label %19

19:                                               ; preds = %.lr.ph.i.i.i
  %20 = getelementptr inbounds i8, ptr %.01118.i.i.i, i64 8
  %.not13.i.i.i = icmp eq ptr %20, %16
  br i1 %.not13.i.i.i, label %._crit_edge.i.i.i, label %.lr.ph.i.i.i, !llvm.loop !40

._crit_edge.i.i.i:                                ; preds = %19, %12
  %21 = getelementptr inbounds ptr, ptr %9, i64 %15
  br label %_ZNK12_GLOBAL__N_18LLVMUsed9usedCountEPN4llvm11GlobalValueE.exit

22:                                               ; preds = %7
  %23 = tail call noundef ptr @_ZNK4llvm19SmallPtrSetImplBase6doFindEPKv(ptr noundef nonnull align 8 dereferenceable(28) %1, ptr noundef nonnull %0) #19
  %.not.i.i.i = icmp eq ptr %23, null
  %.pre.i.i = load ptr, ptr %8, align 8
  %.pre4.i.i = load ptr, ptr %1, align 8
  br i1 %.not.i.i.i, label %24, label %._ZNK4llvm19SmallPtrSetImplBase8find_impEPKv.exit_crit_edge.i.i

._ZNK4llvm19SmallPtrSetImplBase8find_impEPKv.exit_crit_edge.i.i: ; preds = %22
  %.phi.trans.insert.i.i = getelementptr inbounds nuw i8, ptr %1, i64 20
  %.pre5.i.i = load i32, ptr %.phi.trans.insert.i.i, align 4
  br label %_ZNK12_GLOBAL__N_18LLVMUsed9usedCountEPN4llvm11GlobalValueE.exit

24:                                               ; preds = %22
  %25 = icmp eq ptr %.pre.i.i, %.pre4.i.i
  %26 = getelementptr inbounds nuw i8, ptr %1, i64 20
  %27 = load i32, ptr %26, align 4
  %28 = getelementptr inbounds nuw i8, ptr %1, i64 16
  %29 = load i32, ptr %28, align 8
  %.v.v.i14.i.i.i = select i1 %25, i32 %27, i32 %29
  %.v.i15.i.i.i = zext i32 %.v.v.i14.i.i.i to i64
  %30 = getelementptr inbounds ptr, ptr %.pre.i.i, i64 %.v.i15.i.i.i
  br label %_ZNK12_GLOBAL__N_18LLVMUsed9usedCountEPN4llvm11GlobalValueE.exit

_ZNK12_GLOBAL__N_18LLVMUsed9usedCountEPN4llvm11GlobalValueE.exit: ; preds = %.lr.ph.i.i.i, %._crit_edge.i.i.i, %._ZNK4llvm19SmallPtrSetImplBase8find_impEPKv.exit_crit_edge.i.i, %24
  %31 = phi i32 [ %14, %._crit_edge.i.i.i ], [ %27, %24 ], [ %.pre5.i.i, %._ZNK4llvm19SmallPtrSetImplBase8find_impEPKv.exit_crit_edge.i.i ], [ %14, %.lr.ph.i.i.i ]
  %32 = phi ptr [ %9, %._crit_edge.i.i.i ], [ %.pre4.i.i, %24 ], [ %.pre4.i.i, %._ZNK4llvm19SmallPtrSetImplBase8find_impEPKv.exit_crit_edge.i.i ], [ %9, %.lr.ph.i.i.i ]
  %33 = phi ptr [ %9, %._crit_edge.i.i.i ], [ %.pre.i.i, %24 ], [ %.pre.i.i, %._ZNK4llvm19SmallPtrSetImplBase8find_impEPKv.exit_crit_edge.i.i ], [ %9, %.lr.ph.i.i.i ]
  %.0.i.i.i = phi ptr [ %21, %._crit_edge.i.i.i ], [ %30, %24 ], [ %23, %._ZNK4llvm19SmallPtrSetImplBase8find_impEPKv.exit_crit_edge.i.i ], [ %.01118.i.i.i, %.lr.ph.i.i.i ]
  %34 = icmp eq ptr %33, %32
  %35 = getelementptr inbounds nuw i8, ptr %1, i64 16
  %36 = load i32, ptr %35, align 8
  %.v.v.i.i.i = select i1 %34, i32 %31, i32 %36
  %.v.i.i.i = zext i32 %.v.v.i.i.i to i64
  %37 = getelementptr inbounds ptr, ptr %33, i64 %.v.i.i.i
  %.not = icmp eq ptr %.0.i.i.i, %37
  br i1 %.not, label %38, label %71

38:                                               ; preds = %_ZNK12_GLOBAL__N_18LLVMUsed9usedCountEPN4llvm11GlobalValueE.exit
  %39 = getelementptr inbounds nuw i8, ptr %1, i64 64
  %40 = getelementptr inbounds i8, ptr %1, i64 72
  %41 = load ptr, ptr %40, align 8
  %42 = load ptr, ptr %39, align 8
  %43 = icmp eq ptr %41, %42
  br i1 %43, label %44, label %54

44:                                               ; preds = %38
  %45 = getelementptr inbounds i8, ptr %1, i64 84
  %46 = load i32, ptr %45, align 4
  %47 = zext i32 %46 to i64
  %48 = getelementptr inbounds ptr, ptr %42, i64 %47
  %.not1317.i.i.i17 = icmp eq i32 %46, 0
  br i1 %.not1317.i.i.i17, label %._crit_edge.i.i.i21, label %.lr.ph.i.i.i18

.lr.ph.i.i.i18:                                   ; preds = %44, %51
  %.01118.i.i.i19 = phi ptr [ %52, %51 ], [ %42, %44 ]
  %49 = load ptr, ptr %.01118.i.i.i19, align 8
  %50 = icmp eq ptr %49, %0
  br i1 %50, label %_ZNK12_GLOBAL__N_18LLVMUsed17compilerUsedCountEPN4llvm11GlobalValueE.exit, label %51

51:                                               ; preds = %.lr.ph.i.i.i18
  %52 = getelementptr inbounds i8, ptr %.01118.i.i.i19, i64 8
  %.not13.i.i.i20 = icmp eq ptr %52, %48
  br i1 %.not13.i.i.i20, label %._crit_edge.i.i.i21, label %.lr.ph.i.i.i18, !llvm.loop !40

._crit_edge.i.i.i21:                              ; preds = %51, %44
  %53 = getelementptr inbounds ptr, ptr %41, i64 %47
  br label %_ZNK12_GLOBAL__N_18LLVMUsed17compilerUsedCountEPN4llvm11GlobalValueE.exit

54:                                               ; preds = %38
  %55 = tail call noundef ptr @_ZNK4llvm19SmallPtrSetImplBase6doFindEPKv(ptr noundef nonnull align 8 dereferenceable(28) %39, ptr noundef nonnull %0) #19
  %.not.i.i.i6 = icmp eq ptr %55, null
  %.pre.i.i7 = load ptr, ptr %40, align 8
  %.pre4.i.i8 = load ptr, ptr %39, align 8
  br i1 %.not.i.i.i6, label %56, label %._ZNK4llvm19SmallPtrSetImplBase8find_impEPKv.exit_crit_edge.i.i9

._ZNK4llvm19SmallPtrSetImplBase8find_impEPKv.exit_crit_edge.i.i9: ; preds = %54
  %.phi.trans.insert.i.i10 = getelementptr inbounds i8, ptr %1, i64 84
  %.pre5.i.i11 = load i32, ptr %.phi.trans.insert.i.i10, align 4
  br label %_ZNK12_GLOBAL__N_18LLVMUsed17compilerUsedCountEPN4llvm11GlobalValueE.exit

56:                                               ; preds = %54
  %57 = icmp eq ptr %.pre.i.i7, %.pre4.i.i8
  %58 = getelementptr inbounds i8, ptr %1, i64 84
  %59 = load i32, ptr %58, align 4
  %60 = getelementptr inbounds i8, ptr %1, i64 80
  %61 = load i32, ptr %60, align 8
  %.v.v.i14.i.i.i15 = select i1 %57, i32 %59, i32 %61
  %.v.i15.i.i.i16 = zext i32 %.v.v.i14.i.i.i15 to i64
  %62 = getelementptr inbounds ptr, ptr %.pre.i.i7, i64 %.v.i15.i.i.i16
  br label %_ZNK12_GLOBAL__N_18LLVMUsed17compilerUsedCountEPN4llvm11GlobalValueE.exit

_ZNK12_GLOBAL__N_18LLVMUsed17compilerUsedCountEPN4llvm11GlobalValueE.exit: ; preds = %.lr.ph.i.i.i18, %._crit_edge.i.i.i21, %._ZNK4llvm19SmallPtrSetImplBase8find_impEPKv.exit_crit_edge.i.i9, %56
  %63 = phi i32 [ %46, %._crit_edge.i.i.i21 ], [ %59, %56 ], [ %.pre5.i.i11, %._ZNK4llvm19SmallPtrSetImplBase8find_impEPKv.exit_crit_edge.i.i9 ], [ %46, %.lr.ph.i.i.i18 ]
  %64 = phi ptr [ %41, %._crit_edge.i.i.i21 ], [ %.pre4.i.i8, %56 ], [ %.pre4.i.i8, %._ZNK4llvm19SmallPtrSetImplBase8find_impEPKv.exit_crit_edge.i.i9 ], [ %41, %.lr.ph.i.i.i18 ]
  %65 = phi ptr [ %41, %._crit_edge.i.i.i21 ], [ %.pre.i.i7, %56 ], [ %.pre.i.i7, %._ZNK4llvm19SmallPtrSetImplBase8find_impEPKv.exit_crit_edge.i.i9 ], [ %41, %.lr.ph.i.i.i18 ]
  %.0.i.i.i12 = phi ptr [ %53, %._crit_edge.i.i.i21 ], [ %62, %56 ], [ %55, %._ZNK4llvm19SmallPtrSetImplBase8find_impEPKv.exit_crit_edge.i.i9 ], [ %.01118.i.i.i19, %.lr.ph.i.i.i18 ]
  %66 = icmp eq ptr %65, %64
  %67 = getelementptr inbounds i8, ptr %1, i64 80
  %68 = load i32, ptr %67, align 8
  %.v.v.i.i.i13 = select i1 %66, i32 %63, i32 %68
  %.v.i.i.i14 = zext i32 %.v.v.i.i.i13 to i64
  %69 = getelementptr inbounds ptr, ptr %65, i64 %.v.i.i.i14
  %70 = icmp ne ptr %.0.i.i.i12, %69
  br label %71

71:                                               ; preds = %_ZNK12_GLOBAL__N_18LLVMUsed9usedCountEPN4llvm11GlobalValueE.exit, %_ZNK12_GLOBAL__N_18LLVMUsed17compilerUsedCountEPN4llvm11GlobalValueE.exit, %2
  %.0 = phi i1 [ true, %2 ], [ true, %_ZNK12_GLOBAL__N_18LLVMUsed9usedCountEPN4llvm11GlobalValueE.exit ], [ %70, %_ZNK12_GLOBAL__N_18LLVMUsed17compilerUsedCountEPN4llvm11GlobalValueE.exit ]
  ret i1 %.0
}